target datalayout = "e-m:e-p270:32:32-p271:32:32-p272:64:64-i64:64-i128:128-f80:128-n8:16:32:64-S128"
target triple = "x86_64-pc-linux-gnu"

%"class.Ipopt::IpoptCalculatedQuantities" = type <{ %"class.Ipopt::ReferencedObject.base", [4 x i8], %"class.Ipopt::SmartPtr.10", %"class.Ipopt::SmartPtr.11", %"class.Ipopt::SmartPtr.12", double, double, double, i32, i8, [3 x i8], double, %"class.Ipopt::CachedResults", %"class.Ipopt::CachedResults", %"class.Ipopt::CachedResults", %"class.Ipopt::CachedResults", %"class.Ipopt::CachedResults", %"class.Ipopt::CachedResults", %"class.Ipopt::CachedResults", %"class.Ipopt::CachedResults", i32, i32, i32, i32, %"class.Ipopt::CachedResults.13", %"class.Ipopt::CachedResults.13", %"class.Ipopt::CachedResults.14", %"class.Ipopt::CachedResults.14", %"class.Ipopt::CachedResults.13", %"class.Ipopt::CachedResults.13", %"class.Ipopt::CachedResults.14", %"class.Ipopt::CachedResults.14", %"class.Ipopt::CachedResults.14", %"class.Ipopt::CachedResults.14", %"class.Ipopt::CachedResults.14", %"class.Ipopt::CachedResults.14", %"class.Ipopt::CachedResults.14", %"class.Ipopt::CachedResults.14", %"class.Ipopt::CachedResults.14", %"class.Ipopt::CachedResults.14", %"class.Ipopt::CachedResults.15", %"class.Ipopt::CachedResults.15", %"class.Ipopt::CachedResults.15", %"class.Ipopt::CachedResults.15", %"class.Ipopt::CachedResults.14", %"class.Ipopt::CachedResults.14", %"class.Ipopt::CachedResults.14", %"class.Ipopt::CachedResults.14", %"class.Ipopt::CachedResults.14", %"class.Ipopt::CachedResults.14", %"class.Ipopt::CachedResults.13", %"class.Ipopt::CachedResults.13", %"class.Ipopt::CachedResults.13", %"class.Ipopt::CachedResults.13", %"class.Ipopt::CachedResults.13", %"class.Ipopt::CachedResults.16", %"class.Ipopt::CachedResults.14", %"class.Ipopt::CachedResults.14", %"class.Ipopt::CachedResults.14", %"class.Ipopt::CachedResults.14", %"class.Ipopt::CachedResults.14", %"class.Ipopt::CachedResults.14", %"class.Ipopt::CachedResults.14", %"class.Ipopt::CachedResults.14", %"class.Ipopt::CachedResults.14", %"class.Ipopt::CachedResults.14", %"class.Ipopt::CachedResults.14", %"class.Ipopt::CachedResults.14", %"class.Ipopt::CachedResults.14", %"class.Ipopt::CachedResults.14", %"class.Ipopt::CachedResults.14", %"class.Ipopt::CachedResults.14", %"class.Ipopt::CachedResults.14", %"class.Ipopt::CachedResults.14", %"class.Ipopt::CachedResults.13", %"class.Ipopt::CachedResults.13", %"class.Ipopt::CachedResults.13", %"class.Ipopt::CachedResults.13", %"class.Ipopt::CachedResults.13", %"class.Ipopt::CachedResults.13", %"class.Ipopt::CachedResults.13", %"class.Ipopt::CachedResults.13", %"class.Ipopt::CachedResults.13", %"class.Ipopt::CachedResults.13", %"class.Ipopt::CachedResults.13", %"class.Ipopt::CachedResults.13", %"class.Ipopt::CachedResults.13", %"class.Ipopt::CachedResults.17", %"class.Ipopt::CachedResults.13", %"class.Ipopt::CachedResults", %"class.Ipopt::CachedResults", %"class.Ipopt::CachedResults.13", %"class.Ipopt::CachedResults.13", %"class.Ipopt::CachedResults.13", %"class.Ipopt::CachedResults.14", %"class.Ipopt::CachedResults.14", %"class.Ipopt::CachedResults.13", %"class.Ipopt::CachedResults.13", %"class.Ipopt::CachedResults.13", %"class.Ipopt::SmartPtr.18", %"class.Ipopt::SmartPtr.18", %"class.Ipopt::SmartPtr.18", %"class.Ipopt::SmartPtr.18", %"class.Ipopt::SmartPtr.18", %"class.Ipopt::SmartPtr.18", %"class.Ipopt::SmartPtr.18", %"class.Ipopt::SmartPtr.18", %"class.Ipopt::SmartPtr.18", %"class.Ipopt::SmartPtr.18", %"class.Ipopt::SmartPtr.18", %"class.Ipopt::SmartPtr.18", i8, [7 x i8] }>
%"class.Ipopt::ReferencedObject.base" = type <{ ptr, i32 }>
%"class.Ipopt::SmartPtr.10" = type { ptr }
%"class.Ipopt::SmartPtr.11" = type { ptr }
%"class.Ipopt::SmartPtr.12" = type { ptr }
%"class.Ipopt::CachedResults.15" = type { ptr, i32, ptr }
%"class.Ipopt::CachedResults.16" = type { ptr, i32, ptr }
%"class.Ipopt::CachedResults.17" = type { ptr, i32, ptr }
%"class.Ipopt::CachedResults" = type { ptr, i32, ptr }
%"class.Ipopt::CachedResults.14" = type { ptr, i32, ptr }
%"class.Ipopt::CachedResults.13" = type { ptr, i32, ptr }
%"class.Ipopt::SmartPtr.18" = type { ptr }
%"class.Ipopt::ReferencedObject" = type <{ ptr, i32, [4 x i8] }>
%"class.Ipopt::Vector" = type <{ %"class.Ipopt::TaggedObject", %"class.Ipopt::SmartPtr.43", %"class.Ipopt::CachedResults.13", i32, [4 x i8], double, i32, [4 x i8], double, i32, [4 x i8], double, i32, [4 x i8], double, i32, [4 x i8], double, i32, [4 x i8], double, i32, [4 x i8], double, i32, i8, [3 x i8] }>
%"class.Ipopt::TaggedObject" = type { %"class.Ipopt::ReferencedObject.base", %"class.Ipopt::Subject", i32, i32 }
%"class.Ipopt::Subject" = type { ptr, %"class.std::vector" }
%"class.std::vector" = type { %"struct.std::_Vector_base" }
%"struct.std::_Vector_base" = type { %"struct.std::_Vector_base<Ipopt::Observer *, std::allocator<Ipopt::Observer *>>::_Vector_impl" }
%"struct.std::_Vector_base<Ipopt::Observer *, std::allocator<Ipopt::Observer *>>::_Vector_impl" = type { %"struct.std::_Vector_base<Ipopt::Observer *, std::allocator<Ipopt::Observer *>>::_Vector_impl_data" }
%"struct.std::_Vector_base<Ipopt::Observer *, std::allocator<Ipopt::Observer *>>::_Vector_impl_data" = type { ptr, ptr, ptr }
%"class.Ipopt::SmartPtr.43" = type { ptr }
%"class.Ipopt::SmartPtr.44" = type { ptr }

; Function Attrs: inlinehint mustprogress nounwind uwtable
define linkonce_odr noundef i32 @_ZNK5Ipopt16ReferencedObject14ReferenceCountEv(ptr noundef nonnull align 8 dereferenceable(12) %0) #11 comdat align 2 {
  %2 = alloca ptr, align 8
  store ptr %0, ptr %2, align 8, !tbaa !51
  %3 = load ptr, ptr %2, align 8
  %4 = getelementptr inbounds nuw %"class.Ipopt::ReferencedObject", ptr %3, i32 0, i32 1
  %5 = load i32, ptr %4, align 8, !tbaa !53
  ret i32 %5
}

; Function Attrs: inlinehint mustprogress nounwind uwtable
define linkonce_odr void @_ZNK5Ipopt16ReferencedObject10ReleaseRefEPKNS_10ReferencerE(ptr noundef nonnull align 8 dereferenceable(12) %0, ptr noundef %1) #11 comdat align 2 {
  %3 = alloca ptr, align 8
  %4 = alloca ptr, align 8
  store ptr %0, ptr %3, align 8, !tbaa !51
  store ptr %1, ptr %4, align 8, !tbaa !235
  %5 = load ptr, ptr %3, align 8
  %6 = getelementptr inbounds nuw %"class.Ipopt::ReferencedObject", ptr %5, i32 0, i32 1
  %7 = load i32, ptr %6, align 8, !tbaa !53
  %8 = add nsw i32 %7, -1
  store i32 %8, ptr %6, align 8, !tbaa !53
  ret void
}

; Function Attrs: mustprogress nounwind uwtable
define linkonce_odr void @_ZN5Ipopt8SmartPtrINS_6VectorEE15ReleasePointer_Ev(ptr noundef nonnull align 8 dereferenceable(8) %0) #4 comdat align 2 {
  %2 = alloca ptr, align 8
  store ptr %0, ptr %2, align 8, !tbaa !84
  %3 = load ptr, ptr %2, align 8
  %4 = getelementptr inbounds nuw %"class.Ipopt::SmartPtr.18", ptr %3, i32 0, i32 0
  %5 = load ptr, ptr %4, align 8, !tbaa !87
  %6 = icmp ne ptr %5, null
  br i1 %6, label %7, label %25

7:                                                ; preds = %1
  %8 = getelementptr inbounds nuw %"class.Ipopt::SmartPtr.18", ptr %3, i32 0, i32 0
  %9 = load ptr, ptr %8, align 8, !tbaa !87
  call void @_ZNK5Ipopt16ReferencedObject10ReleaseRefEPKNS_10ReferencerE(ptr noundef nonnull align 8 dereferenceable(12) %9, ptr noundef %3)
  %10 = getelementptr inbounds nuw %"class.Ipopt::SmartPtr.18", ptr %3, i32 0, i32 0
  %11 = load ptr, ptr %10, align 8, !tbaa !87
  %12 = call noundef i32 @_ZNK5Ipopt16ReferencedObject14ReferenceCountEv(ptr noundef nonnull align 8 dereferenceable(12) %11)
  %13 = icmp eq i32 %12, 0
  br i1 %13, label %14, label %24

14:                                               ; preds = %7
  %15 = getelementptr inbounds nuw %"class.Ipopt::SmartPtr.18", ptr %3, i32 0, i32 0
  %16 = load ptr, ptr %15, align 8, !tbaa !87
  %17 = icmp eq ptr %16, null
  br i1 %17, label %22, label %18

18:                                               ; preds = %14
  %19 = load ptr, ptr %16, align 8, !tbaa !18
  %20 = getelementptr inbounds ptr, ptr %19, i64 1
  %21 = load ptr, ptr %20, align 8
  call void %21(ptr noundef nonnull align 8 dereferenceable(205) %16) #3
  br label %22

22:                                               ; preds = %18, %14
  %23 = getelementptr inbounds nuw %"class.Ipopt::SmartPtr.18", ptr %3, i32 0, i32 0
  store ptr null, ptr %23, align 8, !tbaa !87
  br label %24

24:                                               ; preds = %22, %7
  br label %25

25:                                               ; preds = %24, %1
  ret void
}

; Function Attrs: inlinehint mustprogress nounwind uwtable
define linkonce_odr void @_ZNK5Ipopt16ReferencedObject6AddRefEPKNS_10ReferencerE(ptr noundef nonnull align 8 dereferenceable(12) %0, ptr noundef %1) #11 comdat align 2 {
  %3 = alloca ptr, align 8
  %4 = alloca ptr, align 8
  store ptr %0, ptr %3, align 8, !tbaa !51
  store ptr %1, ptr %4, align 8, !tbaa !235
  %5 = load ptr, ptr %3, align 8
  %6 = getelementptr inbounds nuw %"class.Ipopt::ReferencedObject", ptr %5, i32 0, i32 1
  %7 = load i32, ptr %6, align 8, !tbaa !53
  %8 = add nsw i32 %7, 1
  store i32 %8, ptr %6, align 8, !tbaa !53
  ret void
}

; Function Attrs: mustprogress nounwind uwtable
define linkonce_odr void @_ZN5Ipopt8SmartPtrIKNS_6VectorEE15ReleasePointer_Ev(ptr noundef nonnull align 8 dereferenceable(8) %0) #4 comdat align 2 {
  %2 = alloca ptr, align 8
  store ptr %0, ptr %2, align 8, !tbaa !164
  %3 = load ptr, ptr %2, align 8
  %4 = getelementptr inbounds nuw %"class.Ipopt::SmartPtr.44", ptr %3, i32 0, i32 0
  %5 = load ptr, ptr %4, align 8, !tbaa !165
  %6 = icmp ne ptr %5, null
  br i1 %6, label %7, label %25

7:                                                ; preds = %1
  %8 = getelementptr inbounds nuw %"class.Ipopt::SmartPtr.44", ptr %3, i32 0, i32 0
  %9 = load ptr, ptr %8, align 8, !tbaa !165
  call void @_ZNK5Ipopt16ReferencedObject10ReleaseRefEPKNS_10ReferencerE(ptr noundef nonnull align 8 dereferenceable(12) %9, ptr noundef %3)
  %10 = getelementptr inbounds nuw %"class.Ipopt::SmartPtr.44", ptr %3, i32 0, i32 0
  %11 = load ptr, ptr %10, align 8, !tbaa !165
  %12 = call noundef i32 @_ZNK5Ipopt16ReferencedObject14ReferenceCountEv(ptr noundef nonnull align 8 dereferenceable(12) %11)
  %13 = icmp eq i32 %12, 0
  br i1 %13, label %14, label %24

14:                                               ; preds = %7
  %15 = getelementptr inbounds nuw %"class.Ipopt::SmartPtr.44", ptr %3, i32 0, i32 0
  %16 = load ptr, ptr %15, align 8, !tbaa !165
  %17 = icmp eq ptr %16, null
  br i1 %17, label %22, label %18

18:                                               ; preds = %14
  %19 = load ptr, ptr %16, align 8, !tbaa !18
  %20 = getelementptr inbounds ptr, ptr %19, i64 1
  %21 = load ptr, ptr %20, align 8
  call void %21(ptr noundef nonnull align 8 dereferenceable(205) %16) #3
  br label %22

22:                                               ; preds = %18, %14
  %23 = getelementptr inbounds nuw %"class.Ipopt::SmartPtr.44", ptr %3, i32 0, i32 0
  store ptr null, ptr %23, align 8, !tbaa !165
  br label %24

24:                                               ; preds = %22, %7
  br label %25

25:                                               ; preds = %24, %1
  ret void
}

; Function Attrs: mustprogress uwtable
define linkonce_odr noundef nonnull align 8 dereferenceable(8) ptr @_ZN5Ipopt8SmartPtrINS_6VectorEE14SetFromRawPtr_EPS1_(ptr noundef nonnull align 8 dereferenceable(8) %0, ptr noundef %1) #6 comdat align 2 {
  %3 = alloca ptr, align 8
  %4 = alloca ptr, align 8
  store ptr %0, ptr %3, align 8, !tbaa !84
  store ptr %1, ptr %4, align 8, !tbaa !86
  %5 = load ptr, ptr %3, align 8
  %6 = load ptr, ptr %4, align 8, !tbaa !86
  %7 = icmp ne ptr %6, null
  br i1 %7, label %8, label %10

8:                                                ; preds = %2
  %9 = load ptr, ptr %4, align 8, !tbaa !86
  call void @_ZNK5Ipopt16ReferencedObject6AddRefEPKNS_10ReferencerE(ptr noundef nonnull align 8 dereferenceable(12) %9, ptr noundef %5)
  br label %10

10:                                               ; preds = %8, %2
  call void @_ZN5Ipopt8SmartPtrINS_6VectorEE15ReleasePointer_Ev(ptr noundef nonnull align 8 dereferenceable(8) %5)
  %11 = load ptr, ptr %4, align 8, !tbaa !86
  %12 = getelementptr inbounds nuw %"class.Ipopt::SmartPtr.18", ptr %5, i32 0, i32 0
  store ptr %11, ptr %12, align 8, !tbaa !87
  ret ptr %5
}

; Function Attrs: mustprogress nounwind uwtable
define linkonce_odr noundef ptr @_ZNK5Ipopt8SmartPtrIKNS_11VectorSpaceEEptEv(ptr noundef nonnull align 8 dereferenceable(8) %0) #4 comdat align 2 {
  %2 = alloca ptr, align 8
  store ptr %0, ptr %2, align 8, !tbaa !226
  %3 = load ptr, ptr %2, align 8
  %4 = getelementptr inbounds nuw %"class.Ipopt::SmartPtr.43", ptr %3, i32 0, i32 0
  %5 = load ptr, ptr %4, align 8, !tbaa !228
  ret ptr %5
}

; Function Attrs: mustprogress nounwind uwtable
define linkonce_odr noundef zeroext i1 @_ZN5Ipopt6IsNullINS_6VectorEEEbRKNS_8SmartPtrIT_EE(ptr noundef nonnull align 8 dereferenceable(8) %0) #4 comdat {
  %2 = alloca ptr, align 8
  store ptr %0, ptr %2, align 8, !tbaa !84
  %3 = load ptr, ptr %2, align 8, !tbaa !84
  %4 = getelementptr inbounds nuw %"class.Ipopt::SmartPtr.18", ptr %3, i32 0, i32 0
  %5 = load ptr, ptr %4, align 8, !tbaa !87
  %6 = icmp eq ptr %5, null
  ret i1 %6
}

; Function Attrs: mustprogress nounwind uwtable
define linkonce_odr noundef nonnull align 8 dereferenceable(205) ptr @_ZNK5Ipopt8SmartPtrINS_6VectorEEdeEv(ptr noundef nonnull align 8 dereferenceable(8) %0) #4 comdat align 2 {
  %2 = alloca ptr, align 8
  store ptr %0, ptr %2, align 8, !tbaa !84
  %3 = load ptr, ptr %2, align 8
  %4 = getelementptr inbounds nuw %"class.Ipopt::SmartPtr.18", ptr %3, i32 0, i32 0
  %5 = load ptr, ptr %4, align 8, !tbaa !87
  ret ptr %5
}

; Function Attrs: mustprogress nounwind uwtable
define linkonce_odr void @_ZN5Ipopt8SmartPtrIKNS_6VectorEED2Ev(ptr noundef nonnull align 8 dereferenceable(8) %0) unnamed_addr #4 comdat align 2 {
  %2 = alloca ptr, align 8
  store ptr %0, ptr %2, align 8, !tbaa !164
  %3 = load ptr, ptr %2, align 8
  call void @_ZN5Ipopt8SmartPtrIKNS_6VectorEE15ReleasePointer_Ev(ptr noundef nonnull align 8 dereferenceable(8) %3)
  ret void
}

; Function Attrs: mustprogress uwtable
define linkonce_odr noundef nonnull align 8 dereferenceable(8) ptr @_ZN5Ipopt8SmartPtrINS_6VectorEEaSEPS1_(ptr noundef nonnull align 8 dereferenceable(8) %0, ptr noundef %1) #6 comdat align 2 {
  %3 = alloca ptr, align 8
  %4 = alloca ptr, align 8
  store ptr %0, ptr %3, align 8, !tbaa !84
  store ptr %1, ptr %4, align 8, !tbaa !86
  %5 = load ptr, ptr %3, align 8
  %6 = load ptr, ptr %4, align 8, !tbaa !86
  %7 = call noundef nonnull align 8 dereferenceable(8) ptr @_ZN5Ipopt8SmartPtrINS_6VectorEE14SetFromRawPtr_EPS1_(ptr noundef nonnull align 8 dereferenceable(8) %5, ptr noundef %6)
  ret ptr %7
}

; Function Attrs: inlinehint mustprogress uwtable
define linkonce_odr noundef ptr @_ZNK5Ipopt6Vector7MakeNewEv(ptr noundef nonnull align 8 dereferenceable(205) %0) #8 comdat align 2 {
  %2 = alloca ptr, align 8
  store ptr %0, ptr %2, align 8, !tbaa !86
  %3 = load ptr, ptr %2, align 8
  %4 = getelementptr inbounds nuw %"class.Ipopt::Vector", ptr %3, i32 0, i32 1
  %5 = call noundef ptr @_ZNK5Ipopt8SmartPtrIKNS_11VectorSpaceEEptEv(ptr noundef nonnull align 8 dereferenceable(8) %4)
  %6 = load ptr, ptr %5, align 8, !tbaa !18
  %7 = getelementptr inbounds ptr, ptr %6, i64 2
  %8 = load ptr, ptr %7, align 8
  %9 = call noundef ptr %8(ptr noundef nonnull align 8 dereferenceable(16) %5)
  ret ptr %9
}

; Function Attrs: mustprogress nounwind uwtable
define linkonce_odr noundef ptr @_ZNK5Ipopt8SmartPtrIKNS_6VectorEEptEv(ptr noundef nonnull align 8 dereferenceable(8) %0) #4 comdat align 2 {
  %2 = alloca ptr, align 8
  store ptr %0, ptr %2, align 8, !tbaa !164
  %3 = load ptr, ptr %2, align 8
  %4 = getelementptr inbounds nuw %"class.Ipopt::SmartPtr.44", ptr %3, i32 0, i32 0
  %5 = load ptr, ptr %4, align 8, !tbaa !165
  ret ptr %5
}

; Function Attrs: mustprogress nounwind uwtable
define linkonce_odr noundef ptr @_ZNK5Ipopt8SmartPtrINS_8IpoptNLPEEptEv(ptr noundef nonnull align 8 dereferenceable(8) %0) #4 comdat align 2 {
  %2 = alloca ptr, align 8
  store ptr %0, ptr %2, align 8, !tbaa !14
  %3 = load ptr, ptr %2, align 8
  %4 = getelementptr inbounds nuw %"class.Ipopt::SmartPtr.10", ptr %3, i32 0, i32 0
  %5 = load ptr, ptr %4, align 8, !tbaa !54
  ret ptr %5
}

; Function Attrs: mustprogress uwtable
define linkonce_odr noundef zeroext i1 @_ZN5Ipopt7IsValidINS_6VectorEEEbRKNS_8SmartPtrIT_EE(ptr noundef nonnull align 8 dereferenceable(8) %0) #6 comdat {
  %2 = alloca ptr, align 8
  store ptr %0, ptr %2, align 8, !tbaa !84
  %3 = load ptr, ptr %2, align 8, !tbaa !84
  %4 = call noundef zeroext i1 @_ZN5Ipopt6IsNullINS_6VectorEEEbRKNS_8SmartPtrIT_EE(ptr noundef nonnull align 8 dereferenceable(8) %3)
  %5 = xor i1 %4, true
  ret i1 %5
}

; Function Attrs: mustprogress uwtable
define noundef nonnull align 8 dereferenceable(205) ptr @_ZN5Ipopt25IpoptCalculatedQuantities7Tmp_x_UEv(ptr noundef nonnull align 8 dereferenceable(2185) %0) #6 align 2 personality ptr @__gxx_personality_v0 {
  %2 = alloca ptr, align 8
  %3 = alloca %"class.Ipopt::SmartPtr.44", align 8
  %4 = alloca ptr, align 8
  %5 = alloca i32, align 4
  store ptr %0, ptr %2, align 8, !tbaa !12
  %6 = load ptr, ptr %2, align 8
  %7 = getelementptr inbounds nuw %"class.Ipopt::IpoptCalculatedQuantities", ptr %6, i32 0, i32 108
  %8 = call noundef zeroext i1 @_ZN5Ipopt7IsValidINS_6VectorEEEbRKNS_8SmartPtrIT_EE(ptr noundef nonnull align 8 dereferenceable(8) %7)
  br i1 %8, label %26, label %9

9:                                                ; preds = %1
  call void @llvm.lifetime.start.p0(i64 8, ptr %3) #3
  %10 = getelementptr inbounds nuw %"class.Ipopt::IpoptCalculatedQuantities", ptr %6, i32 0, i32 2
  %11 = call noundef ptr @_ZNK5Ipopt8SmartPtrINS_8IpoptNLPEEptEv(ptr noundef nonnull align 8 dereferenceable(8) %10)
  %12 = load ptr, ptr %11, align 8, !tbaa !18
  %13 = getelementptr inbounds ptr, ptr %12, i64 14
  %14 = load ptr, ptr %13, align 8
  call void %14(ptr dead_on_unwind writable sret(%"class.Ipopt::SmartPtr.44") align 8 %3, ptr noundef nonnull align 8 dereferenceable(24) %11)
  %15 = invoke noundef ptr @_ZNK5Ipopt8SmartPtrIKNS_6VectorEEptEv(ptr noundef nonnull align 8 dereferenceable(8) %3)
          to label %16 unwind label %22

16:                                               ; preds = %9
  %17 = invoke noundef ptr @_ZNK5Ipopt6Vector7MakeNewEv(ptr noundef nonnull align 8 dereferenceable(205) %15)
          to label %18 unwind label %22

18:                                               ; preds = %16
  %19 = getelementptr inbounds nuw %"class.Ipopt::IpoptCalculatedQuantities", ptr %6, i32 0, i32 108
  %20 = invoke noundef nonnull align 8 dereferenceable(8) ptr @_ZN5Ipopt8SmartPtrINS_6VectorEEaSEPS1_(ptr noundef nonnull align 8 dereferenceable(8) %19, ptr noundef %17)
          to label %21 unwind label %22

21:                                               ; preds = %18
  call void @_ZN5Ipopt8SmartPtrIKNS_6VectorEED2Ev(ptr noundef nonnull align 8 dereferenceable(8) %3) #3
  call void @llvm.lifetime.end.p0(i64 8, ptr %3) #3
  br label %26

22:                                               ; preds = %18, %16, %9
  %23 = landingpad { ptr, i32 }
          cleanup
  %24 = extractvalue { ptr, i32 } %23, 0
  store ptr %24, ptr %4, align 8
  %25 = extractvalue { ptr, i32 } %23, 1
  store i32 %25, ptr %5, align 4
  call void @_ZN5Ipopt8SmartPtrIKNS_6VectorEED2Ev(ptr noundef nonnull align 8 dereferenceable(8) %3) #3
  call void @llvm.lifetime.end.p0(i64 8, ptr %3) #3
  br label %29

26:                                               ; preds = %21, %1
  %27 = getelementptr inbounds nuw %"class.Ipopt::IpoptCalculatedQuantities", ptr %6, i32 0, i32 108
  %28 = call noundef nonnull align 8 dereferenceable(205) ptr @_ZNK5Ipopt8SmartPtrINS_6VectorEEdeEv(ptr noundef nonnull align 8 dereferenceable(8) %27)
  ret ptr %28

29:                                               ; preds = %22
  %30 = load ptr, ptr %4, align 8
  %31 = load i32, ptr %5, align 4
  %32 = insertvalue { ptr, i32 } poison, ptr %30, 0
  %33 = insertvalue { ptr, i32 } %32, i32 %31, 1
  resume { ptr, i32 } %33
}